target datalayout = "e-m:e-p270:32:32-p271:32:32-p272:64:64-i64:64-i128:128-f80:128-n8:16:32:64-S128"
target triple = "x86_64-pc-linux-gnu"

; Function Attrs: nounwind uwtable
define internal i32 @H5P__dxfr_btree_split_ratio_enc(ptr noundef %0, ptr noundef %1, ptr noundef %2) #0 {
  %4 = alloca ptr, align 8
  %5 = alloca ptr, align 8
  %6 = alloca ptr, align 8
  %7 = alloca ptr, align 8
  %8 = alloca ptr, align 8
  %9 = alloca i64, align 8
  %10 = alloca i64, align 8
  %11 = alloca ptr, align 8
  %12 = alloca i64, align 8
  %13 = alloca i64, align 8
  %14 = alloca ptr, align 8
  %15 = alloca i64, align 8
  %16 = alloca i64, align 8
  %17 = alloca ptr, align 8
  store ptr %0, ptr %4, align 8
  store ptr %1, ptr %5, align 8
  store ptr %2, ptr %6, align 8
  %18 = load ptr, ptr %4, align 8
  store ptr %18, ptr %7, align 8
  %19 = load ptr, ptr %5, align 8
  store ptr %19, ptr %8, align 8
  %20 = load ptr, ptr %8, align 8
  %21 = load ptr, ptr %20, align 8
  %22 = icmp ne ptr null, %21
  br i1 %22, label %23, label %103

23:                                               ; preds = %3
  %24 = load ptr, ptr %8, align 8
  %25 = load ptr, ptr %24, align 8
  %26 = getelementptr inbounds i8, ptr %25, i32 1
  store ptr %26, ptr %24, align 8
  store i8 8, ptr %25, align 1
  br label %27

27:                                               ; preds = %23
  %28 = load ptr, ptr %8, align 8
  %29 = load ptr, ptr %28, align 8
  store ptr %29, ptr %11, align 8
  %30 = load ptr, ptr %7, align 8
  call void @llvm.memcpy.p0.p0.i64(ptr align 8 %9, ptr align 8 %30, i64 8, i1 false)
  store i64 0, ptr %10, align 8
  br label %31

31:                                               ; preds = %40, %27
  %32 = load i64, ptr %10, align 8
  %33 = icmp ult i64 %32, 8
  br i1 %33, label %34, label %45

34:                                               ; preds = %31
  %35 = load i64, ptr %9, align 8
  %36 = and i64 %35, 255
  %37 = trunc i64 %36 to i8
  %38 = load ptr, ptr %11, align 8
  %39 = getelementptr inbounds i8, ptr %38, i32 1
  store ptr %39, ptr %11, align 8
  store i8 %37, ptr %38, align 1
  br label %40

40:                                               ; preds = %34
  %41 = load i64, ptr %10, align 8
  %42 = add i64 %41, 1
  store i64 %42, ptr %10, align 8
  %43 = load i64, ptr %9, align 8
  %44 = lshr i64 %43, 8
  store i64 %44, ptr %9, align 8
  br label %31

45:                                               ; preds = %31
  %46 = load ptr, ptr %8, align 8
  %47 = load ptr, ptr %46, align 8
  %48 = getelementptr inbounds i8, ptr %47, i64 8
  %49 = load ptr, ptr %8, align 8
  store ptr %48, ptr %49, align 8
  br label %50

50:                                               ; preds = %45
  %51 = load ptr, ptr %7, align 8
  %52 = getelementptr inbounds double, ptr %51, i32 1
  store ptr %52, ptr %7, align 8
  br label %53

53:                                               ; preds = %50
  %54 = load ptr, ptr %8, align 8
  %55 = load ptr, ptr %54, align 8
  store ptr %55, ptr %14, align 8
  %56 = load ptr, ptr %7, align 8
  call void @llvm.memcpy.p0.p0.i64(ptr align 8 %12, ptr align 8 %56, i64 8, i1 false)
  store i64 0, ptr %13, align 8
  br label %57

57:                                               ; preds = %66, %53
  %58 = load i64, ptr %13, align 8
  %59 = icmp ult i64 %58, 8
  br i1 %59, label %60, label %71

60:                                               ; preds = %57
  %61 = load i64, ptr %12, align 8
  %62 = and i64 %61, 255
  %63 = trunc i64 %62 to i8
  %64 = load ptr, ptr %14, align 8
  %65 = getelementptr inbounds i8, ptr %64, i32 1
  store ptr %65, ptr %14, align 8
  store i8 %63, ptr %64, align 1
  br label %66

66:                                               ; preds = %60
  %67 = load i64, ptr %13, align 8
  %68 = add i64 %67, 1
  store i64 %68, ptr %13, align 8
  %69 = load i64, ptr %12, align 8
  %70 = lshr i64 %69, 8
  store i64 %70, ptr %12, align 8
  br label %57

71:                                               ; preds = %57
  %72 = load ptr, ptr %8, align 8
  %73 = load ptr, ptr %72, align 8
  %74 = getelementptr inbounds i8, ptr %73, i64 8
  %75 = load ptr, ptr %8, align 8
  store ptr %74, ptr %75, align 8
  br label %76

76:                                               ; preds = %71
  %77 = load ptr, ptr %7, align 8
  %78 = getelementptr inbounds double, ptr %77, i32 1
  store ptr %78, ptr %7, align 8
  br label %79

79:                                               ; preds = %76
  %80 = load ptr, ptr %8, align 8
  %81 = load ptr, ptr %80, align 8
  store ptr %81, ptr %17, align 8
  %82 = load ptr, ptr %7, align 8
  call void @llvm.memcpy.p0.p0.i64(ptr align 8 %15, ptr align 8 %82, i64 8, i1 false)
  store i64 0, ptr %16, align 8
  br label %83

83:                                               ; preds = %92, %79
  %84 = load i64, ptr %16, align 8
  %85 = icmp ult i64 %84, 8
  br i1 %85, label %86, label %97

86:                                               ; preds = %83
  %87 = load i64, ptr %15, align 8
  %88 = and i64 %87, 255
  %89 = trunc i64 %88 to i8
  %90 = load ptr, ptr %17, align 8
  %91 = getelementptr inbounds i8, ptr %90, i32 1
  store ptr %91, ptr %17, align 8
  store i8 %89, ptr %90, align 1
  br label %92

92:                                               ; preds = %86
  %93 = load i64, ptr %16, align 8
  %94 = add i64 %93, 1
  store i64 %94, ptr %16, align 8
  %95 = load i64, ptr %15, align 8
  %96 = lshr i64 %95, 8
  store i64 %96, ptr %15, align 8
  br label %83

97:                                               ; preds = %83
  %98 = load ptr, ptr %8, align 8
  %99 = load ptr, ptr %98, align 8
  %100 = getelementptr inbounds i8, ptr %99, i64 8
  %101 = load ptr, ptr %8, align 8
  store ptr %100, ptr %101, align 8
  br label %102

102:                                              ; preds = %97
  br label %103

103:                                              ; preds = %102, %3
  %104 = load ptr, ptr %6, align 8
  %105 = load i64, ptr %104, align 8
  %106 = add i64 %105, 25
  store i64 %106, ptr %104, align 8
  ret i32 0
}