; Function Attrs: nofree norecurse nosync nounwind memory(write, argmem: readwrite, inaccessiblemem: none) uwtable
define internal noundef i32 @H5P__dxfr_btree_split_ratio_enc(ptr nocapture noundef readonly %0, ptr nocapture noundef %1, ptr nocapture noundef %2) #6 {
  %4 = load ptr, ptr %1, align 8
  %.not = icmp eq ptr %4, null
  br i1 %.not, label %34, label %5

5:                                                ; preds = %3
  %6 = getelementptr inbounds i8, ptr %4, i64 1
  store ptr %6, ptr %1, align 8
  store i8 8, ptr %4, align 1
  %7 = load ptr, ptr %1, align 8
  %.0.copyload13 = load i64, ptr %0, align 8
  br label %8

8:                                                ; preds = %5, %8
  %.04046 = phi ptr [ %7, %5 ], [ %10, %8 ]
  %.04145 = phi i64 [ 0, %5 ], [ %11, %8 ]
  %.04244 = phi i64 [ %.0.copyload13, %5 ], [ %12, %8 ]
  %9 = trunc i64 %.04244 to i8
  %10 = getelementptr inbounds i8, ptr %.04046, i64 1
  store i8 %9, ptr %.04046, align 1
  %11 = add nuw nsw i64 %.04145, 1
  %12 = lshr i64 %.04244, 8
  %exitcond.not = icmp eq i64 %11, 8
  br i1 %exitcond.not, label %13, label %8

13:                                               ; preds = %8
  %14 = load ptr, ptr %1, align 8
  %15 = getelementptr inbounds i8, ptr %14, i64 8
  store ptr %15, ptr %1, align 8
  %16 = getelementptr inbounds i8, ptr %0, i64 8
  %.0.copyload7 = load i64, ptr %16, align 8
  br label %17

17:                                               ; preds = %13, %17
  %.03749 = phi ptr [ %15, %13 ], [ %19, %17 ]
  %.03848 = phi i64 [ 0, %13 ], [ %20, %17 ]
  %.03947 = phi i64 [ %.0.copyload7, %13 ], [ %21, %17 ]
  %18 = trunc i64 %.03947 to i8
  %19 = getelementptr inbounds i8, ptr %.03749, i64 1
  store i8 %18, ptr %.03749, align 1
  %20 = add nuw nsw i64 %.03848, 1
  %21 = lshr i64 %.03947, 8
  %exitcond53.not = icmp eq i64 %20, 8
  br i1 %exitcond53.not, label %22, label %17

22:                                               ; preds = %17
  %23 = load ptr, ptr %1, align 8
  %24 = getelementptr inbounds i8, ptr %23, i64 8
  store ptr %24, ptr %1, align 8
  %25 = getelementptr inbounds i8, ptr %0, i64 16
  %.0.copyload = load i64, ptr %25, align 8
  br label %26

26:                                               ; preds = %22, %26
  %.052 = phi ptr [ %24, %22 ], [ %28, %26 ]
  %.03551 = phi i64 [ 0, %22 ], [ %29, %26 ]
  %.03650 = phi i64 [ %.0.copyload, %22 ], [ %30, %26 ]
  %27 = trunc i64 %.03650 to i8
  %28 = getelementptr inbounds i8, ptr %.052, i64 1
  store i8 %27, ptr %.052, align 1
  %29 = add nuw nsw i64 %.03551, 1
  %30 = lshr i64 %.03650, 8
  %exitcond54.not = icmp eq i64 %29, 8
  br i1 %exitcond54.not, label %31, label %26

31:                                               ; preds = %26
  %32 = load ptr, ptr %1, align 8
  %33 = getelementptr inbounds i8, ptr %32, i64 8
  store ptr %33, ptr %1, align 8
  br label %34

34:                                               ; preds = %31, %3
  %35 = load i64, ptr %2, align 8
  %36 = add i64 %35, 25
  store i64 %36, ptr %2, align 8
  ret i32 0
}